; Function Attrs: mustprogress nounwind uwtable
define dso_local noundef zeroext i1 @_ZNK5clang12FunctionDecl9isExternCEv(ptr noundef nonnull align 8 dereferenceable(168) %0) local_unnamed_addr #2 align 2 {
  %2 = getelementptr inbounds nuw i8, ptr %0, i64 16
  %.0.copyload.i.i.i.i.i.i.i.i.i.i.i.i = load i64, ptr %2, align 8
  %3 = and i64 %.0.copyload.i.i.i.i.i.i.i.i.i.i.i.i, 4
  %4 = icmp eq i64 %3, 0
  %5 = and i64 %.0.copyload.i.i.i.i.i.i.i.i.i.i.i.i, -8
  %6 = inttoptr i64 %5 to ptr
  br i1 %4, label %_ZNK5clang4Decl14getDeclContextEv.exit.i, label %7

7:                                                ; preds = %1
  %8 = load ptr, ptr %6, align 8
  br label %_ZNK5clang4Decl14getDeclContextEv.exit.i

_ZNK5clang4Decl14getDeclContextEv.exit.i:         ; preds = %7, %1
  %.0.i.i.i = phi ptr [ %8, %7 ], [ %6, %1 ]
  %9 = getelementptr inbounds nuw i8, ptr %.0.i.i.i, i64 8
  %10 = load i16, ptr %9, align 8
  %11 = and i16 %10, 127
  %12 = add nsw i16 %11, -55
  %spec.select.i.i = icmp ult i16 %12, 4
  br i1 %spec.select.i.i, label %_ZL13isDeclExternCIN5clang12FunctionDeclEEbRKT_.exit, label %13

13:                                               ; preds = %_ZNK5clang4Decl14getDeclContextEv.exit.i
  %14 = tail call noundef i32 @_ZNK5clang12FunctionDecl18getLanguageLinkageEv(ptr noundef nonnull align 8 dereferenceable(168) %0)
  %15 = icmp eq i32 %14, 0
  br label %_ZL13isDeclExternCIN5clang12FunctionDeclEEbRKT_.exit

_ZL13isDeclExternCIN5clang12FunctionDeclEEbRKT_.exit: ; preds = %_ZNK5clang4Decl14getDeclContextEv.exit.i, %13
  %.0.i = phi i1 [ %15, %13 ], [ false, %_ZNK5clang4Decl14getDeclContextEv.exit.i ]
  ret i1 %.0.i
}